; Function Attrs: mustprogress uwtable
define void @_ZN3gmx19StatePropagatorData7Element12elementSetupEv(ptr nocapture noundef nonnull readonly align 8 dereferenceable(272) %0) unnamed_addr #0 align 2 {
  %2 = getelementptr inbounds i8, ptr %0, i64 40
  %3 = load ptr, ptr %2, align 8
  %4 = getelementptr inbounds i8, ptr %3, i64 552
  %5 = load i8, ptr %4, align 8
  %6 = trunc i8 %5 to i1
  br i1 %6, label %7, label %22

7:                                                ; preds = %1
  %8 = getelementptr inbounds i8, ptr %3, i64 88
  %9 = getelementptr inbounds i8, ptr %3, i64 560
  %10 = tail call noundef nonnull align 8 dereferenceable(32) ptr @_ZNSt6vectorIN3gmx11BasicVectorIfEENS0_9AllocatorIS2_NS0_20HostAllocationPolicyEEEEaSERKS6_(ptr noundef nonnull align 8 dereferenceable(32) %9, ptr noundef nonnull align 8 dereferenceable(32) %8)
  %11 = getelementptr inbounds i8, ptr %3, i64 568
  %12 = load ptr, ptr %11, align 8
  %13 = getelementptr inbounds i8, ptr %3, i64 120
  %14 = load ptr, ptr %13, align 8
  %15 = getelementptr inbounds i8, ptr %3, i64 96
  %16 = load ptr, ptr %15, align 8
  %17 = ptrtoint ptr %14 to i64
  %18 = ptrtoint ptr %16 to i64
  %19 = sub i64 %17, %18
  %20 = getelementptr inbounds i8, ptr %12, i64 %19
  %21 = getelementptr inbounds i8, ptr %3, i64 592
  store ptr %20, ptr %21, align 8
  br label %22

22:                                               ; preds = %7, %1
  ret void
}